target datalayout = "e-m:e-p270:32:32-p271:32:32-p272:64:64-i64:64-i128:128-f80:128-n8:16:32:64-S128"
target triple = "x86_64-pc-linux-gnu"

%"class.cv::Mat" = type { i32, i32, i32, i32, ptr, ptr, ptr, ptr, ptr, ptr, %"struct.cv::MatSize", %"struct.cv::MatStep" }
%"struct.cv::MatSize" = type { ptr }
%"struct.cv::MatStep" = type { ptr, [2 x i64] }
%"class.std::__cxx11::basic_string" = type { %"struct.std::__cxx11::basic_string<char>::_Alloc_hider", i64, %union.anon }
%"struct.std::__cxx11::basic_string<char>::_Alloc_hider" = type { ptr }
%union.anon = type { i64, [8 x i8] }
%"class.std::allocator.10" = type { i8 }
%"class.cv::_InputArray" = type { i32, ptr, %"class.cv::Size_" }
%"class.cv::Size_" = type { i32, i32 }
%"class.cv::_OutputArray" = type { %"class.cv::_InputArray" }
%struct.CvSeq = type { i32, i32, ptr, ptr, ptr, ptr, i32, i32, ptr, ptr, i32, ptr, ptr, ptr }
%struct.CvSeqBlock = type { ptr, ptr, i32, i32, ptr }
%struct.CvMat = type { i32, i32, ptr, i32, %union.anon.25, %union.anon.26, %union.anon.27 }
%union.anon.25 = type { ptr }
%union.anon.26 = type { i32 }
%union.anon.27 = type { i32 }

@.str.1 = private unnamed_addr constant [121 x i8] c"generated/home/dtcxzyw/WorkSpace/Projects/compilers/llvm-opt-benchmark/bench/opencv/opencv/modules/imgproc/src/hough.cpp\00", align 1
@.str.11 = private unnamed_addr constant [17 x i8] c"NULL destination\00", align 1
@.str.13 = private unnamed_addr constant [85 x i8] c"The destination matrix should be continuous and have a single row or a single column\00", align 1
@__func__.cvHoughCircles = private unnamed_addr constant [15 x i8] c"cvHoughCircles\00", align 1

; Function Attrs: mustprogress uwtable
define linkonce_odr hidden void @_ZN2cv11_InputArrayC2Ev(ptr noundef nonnull align 8 dereferenceable(24) %0) unnamed_addr #0 comdat align 2 {
  %2 = alloca ptr, align 8
  store ptr %0, ptr %2, align 8
  %3 = load ptr, ptr %2, align 8
  %4 = getelementptr inbounds %"class.cv::_InputArray", ptr %3, i32 0, i32 2
  call void @_ZN2cv5Size_IiEC2Ev(ptr noundef nonnull align 4 dereferenceable(8) %4)
  call void @_ZN2cv11_InputArray4initEiPKv(ptr noundef nonnull align 8 dereferenceable(24) %3, i32 noundef 0, ptr noundef null)
  ret void
}

; Function Attrs: mustprogress nounwind uwtable
define linkonce_odr hidden void @_ZN2cv11_InputArray4initEiPKv(ptr noundef nonnull align 8 dereferenceable(24) %0, i32 noundef %1, ptr noundef %2) #4 comdat align 2 {
  %4 = alloca ptr, align 8
  %5 = alloca i32, align 4
  %6 = alloca ptr, align 8
  store ptr %0, ptr %4, align 8
  store i32 %1, ptr %5, align 4
  store ptr %2, ptr %6, align 8
  %7 = load ptr, ptr %4, align 8
  %8 = load i32, ptr %5, align 4
  %9 = getelementptr inbounds %"class.cv::_InputArray", ptr %7, i32 0, i32 0
  store i32 %8, ptr %9, align 8
  %10 = load ptr, ptr %6, align 8
  %11 = getelementptr inbounds %"class.cv::_InputArray", ptr %7, i32 0, i32 1
  store ptr %10, ptr %11, align 8
  ret void
}

; Function Attrs: mustprogress nounwind uwtable
define linkonce_odr hidden void @_ZN2cv5Size_IiEC2Ev(ptr noundef nonnull align 4 dereferenceable(8) %0) unnamed_addr #4 comdat align 2 {
  %2 = alloca ptr, align 8
  store ptr %0, ptr %2, align 8
  %3 = load ptr, ptr %2, align 8
  %4 = getelementptr inbounds %"class.cv::Size_", ptr %3, i32 0, i32 0
  store i32 0, ptr %4, align 4
  %5 = getelementptr inbounds %"class.cv::Size_", ptr %3, i32 0, i32 1
  store i32 0, ptr %5, align 4
  ret void
}

; Function Attrs: mustprogress nounwind uwtable
define linkonce_odr hidden void @_ZN2cv11_InputArrayD2Ev(ptr noundef nonnull align 8 dereferenceable(24) %0) unnamed_addr #4 comdat align 2 {
  %2 = alloca ptr, align 8
  store ptr %0, ptr %2, align 8
  ret void
}

; Function Attrs: mustprogress nounwind uwtable
define linkonce_odr hidden void @_ZN2cv12_OutputArrayD2Ev(ptr noundef nonnull align 8 dereferenceable(24) %0) unnamed_addr #4 comdat align 2 {
  %2 = alloca ptr, align 8
  store ptr %0, ptr %2, align 8
  %3 = load ptr, ptr %2, align 8
  call void @_ZN2cv11_InputArrayD2Ev(ptr noundef nonnull align 8 dereferenceable(24) %3) #15
  ret void
}

; Function Attrs: mustprogress uwtable
define linkonce_odr hidden void @_ZN2cv12_OutputArrayC2ERNS_3MatE(ptr noundef nonnull align 8 dereferenceable(24) %0, ptr noundef nonnull align 8 dereferenceable(96) %1) unnamed_addr #0 comdat align 2 {
  %3 = alloca ptr, align 8
  %4 = alloca ptr, align 8
  store ptr %0, ptr %3, align 8
  store ptr %1, ptr %4, align 8
  %5 = load ptr, ptr %3, align 8
  call void @_ZN2cv11_InputArrayC2Ev(ptr noundef nonnull align 8 dereferenceable(24) %5)
  %6 = load ptr, ptr %4, align 8
  call void @_ZN2cv11_InputArray4initEiPKv(ptr noundef nonnull align 8 dereferenceable(24) %5, i32 noundef 33619968, ptr noundef %6)
  ret void
}

; Function Attrs: mustprogress uwtable
define linkonce_odr hidden void @_ZN2cv11_InputArrayC2ERKNS_3MatE(ptr noundef nonnull align 8 dereferenceable(24) %0, ptr noundef nonnull align 8 dereferenceable(96) %1) unnamed_addr #0 comdat align 2 {
  %3 = alloca ptr, align 8
  %4 = alloca ptr, align 8
  store ptr %0, ptr %3, align 8
  store ptr %1, ptr %4, align 8
  %5 = load ptr, ptr %3, align 8
  %6 = getelementptr inbounds %"class.cv::_InputArray", ptr %5, i32 0, i32 2
  call void @_ZN2cv5Size_IiEC2Ev(ptr noundef nonnull align 4 dereferenceable(8) %6)
  %7 = load ptr, ptr %4, align 8
  call void @_ZN2cv11_InputArray4initEiPKv(ptr noundef nonnull align 8 dereferenceable(24) %5, i32 noundef 16842752, ptr noundef %7)
  ret void
}

; Function Attrs: mustprogress uwtable
define ptr @cvHoughCircles(ptr noundef %0, ptr noundef %1, i32 noundef %2, double noundef %3, double noundef %4, double noundef %5, double noundef %6, i32 noundef %7, i32 noundef %8) #0 personality ptr @__gxx_personality_v0 {
  %10 = alloca ptr, align 8
  %11 = alloca ptr, align 8
  %12 = alloca i32, align 4
  %13 = alloca double, align 8
  %14 = alloca double, align 8
  %15 = alloca double, align 8
  %16 = alloca double, align 8
  %17 = alloca i32, align 4
  %18 = alloca i32, align 4
  %19 = alloca ptr, align 8
  %20 = alloca i32, align 4
  %21 = alloca %"class.cv::Mat", align 8
  %22 = alloca %"class.cv::Mat", align 8
  %23 = alloca %"class.std::__cxx11::basic_string", align 8
  %24 = alloca %"class.std::allocator.10", align 1
  %25 = alloca ptr, align 8
  %26 = alloca i32, align 4
  %27 = alloca i8, align 1
  %28 = alloca %struct.CvSeq, align 8
  %29 = alloca %struct.CvSeqBlock, align 8
  %30 = alloca ptr, align 8
  %31 = alloca %"class.std::__cxx11::basic_string", align 8
  %32 = alloca %"class.std::allocator.10", align 1
  %33 = alloca %"class.cv::_InputArray", align 8
  %34 = alloca %"class.cv::_OutputArray", align 8
  store ptr %0, ptr %10, align 8
  store ptr %1, ptr %11, align 8
  store i32 %2, ptr %12, align 4
  store double %3, ptr %13, align 8
  store double %4, ptr %14, align 8
  store double %5, ptr %15, align 8
  store double %6, ptr %16, align 8
  store i32 %7, ptr %17, align 4
  store i32 %8, ptr %18, align 4
  store ptr null, ptr %19, align 8
  store i32 2147483647, ptr %20, align 4
  %35 = load ptr, ptr %10, align 8
  call void @_ZN2cv10cvarrToMatEPKvbbiPNS_10AutoBufferIdLm136EEE(ptr dead_on_unwind writable sret(%"class.cv::Mat") align 8 %21, ptr noundef %35, i1 noundef zeroext false, i1 noundef zeroext true, i32 noundef 0, ptr noundef null)
  call void @_ZN2cv3MatC1Ev(ptr noundef nonnull align 8 dereferenceable(96) %22) #15
  %36 = load ptr, ptr %11, align 8
  %37 = icmp ne ptr %36, null
  br i1 %37, label %50, label %38

38:                                               ; preds = %9
  call void @_ZNSaIcEC1Ev(ptr noundef nonnull align 1 dereferenceable(1) %24) #15
  invoke void @_ZNSt7__cxx1112basic_stringIcSt11char_traitsIcESaIcEEC1EPKcRKS3_(ptr noundef nonnull align 8 dereferenceable(32) %23, ptr noundef @.str.11, ptr noundef nonnull align 1 dereferenceable(1) %24)
          to label %39 unwind label %41

39:                                               ; preds = %38
  invoke void @_ZN2cv5errorEiRKNSt7__cxx1112basic_stringIcSt11char_traitsIcESaIcEEEPKcS9_i(i32 noundef -27, ptr noundef nonnull align 8 dereferenceable(32) %23, ptr noundef @__func__.cvHoughCircles, ptr noundef @.str.1, i32 noundef 2476) #16
          to label %40 unwind label %45

40:                                               ; preds = %39
  unreachable

41:                                               ; preds = %38
  %42 = landingpad { ptr, i32 }
          cleanup
  %43 = extractvalue { ptr, i32 } %42, 0
  store ptr %43, ptr %25, align 8
  %44 = extractvalue { ptr, i32 } %42, 1
  store i32 %44, ptr %26, align 4
  br label %49

45:                                               ; preds = %39
  %46 = landingpad { ptr, i32 }
          cleanup
  %47 = extractvalue { ptr, i32 } %46, 0
  store ptr %47, ptr %25, align 8
  %48 = extractvalue { ptr, i32 } %46, 1
  store i32 %48, ptr %26, align 4
  call void @_ZNSt7__cxx1112basic_stringIcSt11char_traitsIcESaIcEED1Ev(ptr noundef nonnull align 8 dereferenceable(32) %23) #15
  br label %49

49:                                               ; preds = %45, %41
  call void @_ZNSaIcED1Ev(ptr noundef nonnull align 1 dereferenceable(1) %24) #15
  br label %148

50:                                               ; preds = %9
  %51 = load ptr, ptr %11, align 8
  %52 = invoke noundef zeroext i1 @_Z14isStorageOrMatPv(ptr noundef %51)
          to label %53 unwind label %61

53:                                               ; preds = %50
  %54 = zext i1 %52 to i8
  store i8 %54, ptr %27, align 1
  %55 = load i8, ptr %27, align 1
  %56 = trunc i8 %55 to i1
  br i1 %56, label %57, label %65

57:                                               ; preds = %53
  %58 = load ptr, ptr %11, align 8
  %59 = invoke ptr @cvCreateSeq(i32 noundef 21, i64 noundef 96, i64 noundef 12, ptr noundef %58)
          to label %60 unwind label %61

60:                                               ; preds = %57
  store ptr %59, ptr %19, align 8
  br label %119

61:                                               ; preds = %135, %130, %119, %113, %100, %57, %50
  %62 = landingpad { ptr, i32 }
          cleanup
  %63 = extractvalue { ptr, i32 } %62, 0
  store ptr %63, ptr %25, align 8
  %64 = extractvalue { ptr, i32 } %62, 1
  store i32 %64, ptr %26, align 4
  br label %148

65:                                               ; preds = %53
  %66 = load ptr, ptr %11, align 8
  store ptr %66, ptr %30, align 8
  %67 = load ptr, ptr %30, align 8
  %68 = getelementptr inbounds %struct.CvMat, ptr %67, i32 0, i32 0
  %69 = load i32, ptr %68, align 8
  %70 = and i32 %69, 16384
  %71 = icmp ne i32 %70, 0
  br i1 %71, label %72, label %88

72:                                               ; preds = %65
  %73 = load ptr, ptr %30, align 8
  %74 = getelementptr inbounds %struct.CvMat, ptr %73, i32 0, i32 5
  %75 = load i32, ptr %74, align 8
  %76 = icmp ne i32 %75, 1
  br i1 %76, label %77, label %82

77:                                               ; preds = %72
  %78 = load ptr, ptr %30, align 8
  %79 = getelementptr inbounds %struct.CvMat, ptr %78, i32 0, i32 6
  %80 = load i32, ptr %79, align 4
  %81 = icmp ne i32 %80, 1
  br i1 %81, label %88, label %82

82:                                               ; preds = %77, %72
  %83 = load ptr, ptr %30, align 8
  %84 = getelementptr inbounds %struct.CvMat, ptr %83, i32 0, i32 0
  %85 = load i32, ptr %84, align 8
  %86 = and i32 %85, 4095
  %87 = icmp ne i32 %86, 21
  br i1 %87, label %88, label %100

88:                                               ; preds = %82, %77, %65
  call void @_ZNSaIcEC1Ev(ptr noundef nonnull align 1 dereferenceable(1) %32) #15
  invoke void @_ZNSt7__cxx1112basic_stringIcSt11char_traitsIcESaIcEEC1EPKcRKS3_(ptr noundef nonnull align 8 dereferenceable(32) %31, ptr noundef @.str.13, ptr noundef nonnull align 1 dereferenceable(1) %32)
          to label %89 unwind label %91

89:                                               ; preds = %88
  invoke void @_ZN2cv5errorEiRKNSt7__cxx1112basic_stringIcSt11char_traitsIcESaIcEEEPKcS9_i(i32 noundef -5, ptr noundef nonnull align 8 dereferenceable(32) %31, ptr noundef @__func__.cvHoughCircles, ptr noundef @.str.1, i32 noundef 2494) #16
          to label %90 unwind label %95

90:                                               ; preds = %89
  unreachable

91:                                               ; preds = %88
  %92 = landingpad { ptr, i32 }
          cleanup
  %93 = extractvalue { ptr, i32 } %92, 0
  store ptr %93, ptr %25, align 8
  %94 = extractvalue { ptr, i32 } %92, 1
  store i32 %94, ptr %26, align 4
  br label %99

95:                                               ; preds = %89
  %96 = landingpad { ptr, i32 }
          cleanup
  %97 = extractvalue { ptr, i32 } %96, 0
  store ptr %97, ptr %25, align 8
  %98 = extractvalue { ptr, i32 } %96, 1
  store i32 %98, ptr %26, align 4
  call void @_ZNSt7__cxx1112basic_stringIcSt11char_traitsIcESaIcEED1Ev(ptr noundef nonnull align 8 dereferenceable(32) %31) #15
  br label %99

99:                                               ; preds = %95, %91
  call void @_ZNSaIcED1Ev(ptr noundef nonnull align 1 dereferenceable(1) %32) #15
  br label %148

100:                                              ; preds = %82
  %101 = load ptr, ptr %30, align 8
  %102 = getelementptr inbounds %struct.CvMat, ptr %101, i32 0, i32 4
  %103 = load ptr, ptr %102, align 8
  %104 = load ptr, ptr %30, align 8
  %105 = getelementptr inbounds %struct.CvMat, ptr %104, i32 0, i32 5
  %106 = load i32, ptr %105, align 8
  %107 = load ptr, ptr %30, align 8
  %108 = getelementptr inbounds %struct.CvMat, ptr %107, i32 0, i32 6
  %109 = load i32, ptr %108, align 4
  %110 = add nsw i32 %106, %109
  %111 = sub nsw i32 %110, 1
  %112 = invoke ptr @cvMakeSeqHeaderForArray(i32 noundef 21, i32 noundef 96, i32 noundef 12, ptr noundef %103, i32 noundef %111, ptr noundef %28, ptr noundef %29)
          to label %113 unwind label %61

113:                                              ; preds = %100
  store ptr %112, ptr %19, align 8
  %114 = load ptr, ptr %19, align 8
  %115 = getelementptr inbounds %struct.CvSeq, ptr %114, i32 0, i32 6
  %116 = load i32, ptr %115, align 8
  store i32 %116, ptr %20, align 4
  %117 = load ptr, ptr %19, align 8
  invoke void @cvClearSeq(ptr noundef %117)
          to label %118 unwind label %61

118:                                              ; preds = %113
  br label %119

119:                                              ; preds = %118, %60
  invoke void @_ZN2cv11_InputArrayC2ERKNS_3MatE(ptr noundef nonnull align 8 dereferenceable(24) %33, ptr noundef nonnull align 8 dereferenceable(96) %21)
          to label %120 unwind label %61

120:                                              ; preds = %119
  invoke void @_ZN2cv12_OutputArrayC2ERNS_3MatE(ptr noundef nonnull align 8 dereferenceable(24) %34, ptr noundef nonnull align 8 dereferenceable(96) %22)
          to label %121 unwind label %139

121:                                              ; preds = %120
  %122 = load i32, ptr %12, align 4
  %123 = load double, ptr %13, align 8
  %124 = load double, ptr %14, align 8
  %125 = load double, ptr %15, align 8
  %126 = load double, ptr %16, align 8
  %127 = load i32, ptr %17, align 4
  %128 = load i32, ptr %18, align 4
  %129 = load i32, ptr %20, align 4
  invoke void @_ZN2cvL12HoughCirclesERKNS_11_InputArrayERKNS_12_OutputArrayEiddddiiid(ptr noundef nonnull align 8 dereferenceable(24) %33, ptr noundef nonnull align 8 dereferenceable(24) %34, i32 noundef %122, double noundef %123, double noundef %124, double noundef %125, double noundef %126, i32 noundef %127, i32 noundef %128, i32 noundef %129, double noundef 3.000000e+00)
          to label %130 unwind label %143

130:                                              ; preds = %121
  call void @_ZN2cv12_OutputArrayD2Ev(ptr noundef nonnull align 8 dereferenceable(24) %34) #15
  call void @_ZN2cv11_InputArrayD2Ev(ptr noundef nonnull align 8 dereferenceable(24) %33) #15
  %131 = load ptr, ptr %19, align 8
  %132 = getelementptr inbounds %"class.cv::Mat", ptr %22, i32 0, i32 4
  %133 = load ptr, ptr %132, align 8
  %134 = invoke noundef i64 @_ZNK2cv3Mat5totalEv(ptr noundef nonnull align 8 dereferenceable(96) %22)
          to label %135 unwind label %61

135:                                              ; preds = %130
  %136 = trunc i64 %134 to i32
  invoke void @cvSeqPushMulti(ptr noundef %131, ptr noundef %133, i32 noundef %136, i32 noundef 0)
          to label %137 unwind label %61

137:                                              ; preds = %135
  %138 = load ptr, ptr %19, align 8
  call void @_ZN2cv3MatD1Ev(ptr noundef nonnull align 8 dereferenceable(96) %22) #15
  call void @_ZN2cv3MatD1Ev(ptr noundef nonnull align 8 dereferenceable(96) %21) #15
  ret ptr %138

139:                                              ; preds = %120
  %140 = landingpad { ptr, i32 }
          cleanup
  %141 = extractvalue { ptr, i32 } %140, 0
  store ptr %141, ptr %25, align 8
  %142 = extractvalue { ptr, i32 } %140, 1
  store i32 %142, ptr %26, align 4
  br label %147

143:                                              ; preds = %121
  %144 = landingpad { ptr, i32 }
          cleanup
  %145 = extractvalue { ptr, i32 } %144, 0
  store ptr %145, ptr %25, align 8
  %146 = extractvalue { ptr, i32 } %144, 1
  store i32 %146, ptr %26, align 4
  call void @_ZN2cv12_OutputArrayD2Ev(ptr noundef nonnull align 8 dereferenceable(24) %34) #15
  br label %147

147:                                              ; preds = %143, %139
  call void @_ZN2cv11_InputArrayD2Ev(ptr noundef nonnull align 8 dereferenceable(24) %33) #15
  br label %148

148:                                              ; preds = %147, %99, %61, %49
  call void @_ZN2cv3MatD1Ev(ptr noundef nonnull align 8 dereferenceable(96) %22) #15
  call void @_ZN2cv3MatD1Ev(ptr noundef nonnull align 8 dereferenceable(96) %21) #15
  br label %149

149:                                              ; preds = %148
  %150 = load ptr, ptr %25, align 8
  %151 = load i32, ptr %26, align 4
  %152 = insertvalue { ptr, i32 } poison, ptr %150, 0
  %153 = insertvalue { ptr, i32 } %152, i32 %151, 1
  resume { ptr, i32 } %153
}