; Function Attrs: mustprogress uwtable
define ptr @cvHoughCircles(ptr noundef %0, ptr noundef %1, i32 noundef %2, double noundef %3, double noundef %4, double noundef %5, double noundef %6, i32 noundef %7, i32 noundef %8) local_unnamed_addr #3 personality ptr @__gxx_personality_v0 {
  %10 = alloca %"class.cv::Mat", align 8
  %11 = alloca %"class.cv::Mat", align 8
  %12 = alloca %"class.std::__cxx11::basic_string", align 8
  %13 = alloca %"class.std::allocator.10", align 1
  %14 = alloca %struct.CvSeq, align 8
  %15 = alloca %struct.CvSeqBlock, align 8
  %16 = alloca %"class.std::__cxx11::basic_string", align 8
  %17 = alloca %"class.std::allocator.10", align 1
  %18 = alloca %"class.cv::_InputArray", align 8
  %19 = alloca %"class.cv::_OutputArray", align 8
  call void @_ZN2cv10cvarrToMatEPKvbbiPNS_10AutoBufferIdLm136EEE(ptr dead_on_unwind nonnull writable sret(%"class.cv::Mat") align 8 %10, ptr noundef %0, i1 noundef zeroext false, i1 noundef zeroext true, i32 noundef 0, ptr noundef null)
  call void @_ZN2cv3MatC1Ev(ptr noundef nonnull align 8 dereferenceable(96) %11) #19
  %.not = icmp eq ptr %1, null
  br i1 %.not, label %20, label %28

20:                                               ; preds = %9
  call void @_ZNSaIcEC1Ev(ptr noundef nonnull align 1 dereferenceable(1) %13) #19
  invoke void @_ZNSt7__cxx1112basic_stringIcSt11char_traitsIcESaIcEEC1EPKcRKS3_(ptr noundef nonnull align 8 dereferenceable(32) %12, ptr noundef nonnull @.str.11, ptr noundef nonnull align 1 dereferenceable(1) %13)
          to label %21 unwind label %23

21:                                               ; preds = %20
  invoke void @_ZN2cv5errorEiRKNSt7__cxx1112basic_stringIcSt11char_traitsIcESaIcEEEPKcS9_i(i32 noundef -27, ptr noundef nonnull align 8 dereferenceable(32) %12, ptr noundef nonnull @__func__.cvHoughCircles, ptr noundef nonnull @.str.1, i32 noundef 2476) #20
          to label %22 unwind label %25

22:                                               ; preds = %21
  unreachable

23:                                               ; preds = %20
  %24 = landingpad { ptr, i32 }
          cleanup
  br label %27

25:                                               ; preds = %21
  %26 = landingpad { ptr, i32 }
          cleanup
  call void @_ZNSt7__cxx1112basic_stringIcSt11char_traitsIcESaIcEED1Ev(ptr noundef nonnull align 8 dereferenceable(32) %12) #19
  br label %27

27:                                               ; preds = %25, %23
  %.pn = phi { ptr, i32 } [ %26, %25 ], [ %24, %23 ]
  call void @_ZNSaIcED1Ev(ptr noundef nonnull align 1 dereferenceable(1) %13) #19
  br label %79

28:                                               ; preds = %9
  %29 = invoke noundef zeroext i1 @_Z14isStorageOrMatPv(ptr noundef nonnull %1)
          to label %30 unwind label %33

30:                                               ; preds = %28
  br i1 %29, label %31, label %35

31:                                               ; preds = %30
  %32 = invoke ptr @cvCreateSeq(i32 noundef 21, i64 noundef 96, i64 noundef 12, ptr noundef nonnull %1)
          to label %64 unwind label %33

33:                                               ; preds = %74, %70, %61, %54, %31, %28
  %34 = landingpad { ptr, i32 }
          cleanup
  br label %79

35:                                               ; preds = %30
  %36 = load i32, ptr %1, align 8
  %37 = and i32 %36, 16384
  %.not34 = icmp eq i32 %37, 0
  br i1 %.not34, label %46, label %38

38:                                               ; preds = %35
  %39 = getelementptr inbounds i8, ptr %1, i64 32
  %40 = load i32, ptr %39, align 8
  %.not35 = icmp eq i32 %40, 1
  br i1 %.not35, label %45, label %41

41:                                               ; preds = %38
  %42 = getelementptr inbounds i8, ptr %1, i64 36
  %43 = load i32, ptr %42, align 4
  %.not36 = icmp eq i32 %43, 1
  %44 = and i32 %36, 4095
  %.not37 = icmp eq i32 %44, 21
  %or.cond = and i1 %.not37, %.not36
  br i1 %or.cond, label %54, label %46

45:                                               ; preds = %38
  %.old = and i32 %36, 4095
  %.not37.old = icmp eq i32 %.old, 21
  br i1 %.not37.old, label %._crit_edge, label %46

._crit_edge:                                      ; preds = %45
  %.phi.trans.insert = getelementptr inbounds i8, ptr %1, i64 36
  %.pre = load i32, ptr %.phi.trans.insert, align 4
  br label %54

46:                                               ; preds = %45, %41, %35
  call void @_ZNSaIcEC1Ev(ptr noundef nonnull align 1 dereferenceable(1) %17) #19
  invoke void @_ZNSt7__cxx1112basic_stringIcSt11char_traitsIcESaIcEEC1EPKcRKS3_(ptr noundef nonnull align 8 dereferenceable(32) %16, ptr noundef nonnull @.str.13, ptr noundef nonnull align 1 dereferenceable(1) %17)
          to label %47 unwind label %49

47:                                               ; preds = %46
  invoke void @_ZN2cv5errorEiRKNSt7__cxx1112basic_stringIcSt11char_traitsIcESaIcEEEPKcS9_i(i32 noundef -5, ptr noundef nonnull align 8 dereferenceable(32) %16, ptr noundef nonnull @__func__.cvHoughCircles, ptr noundef nonnull @.str.1, i32 noundef 2494) #20
          to label %48 unwind label %51

48:                                               ; preds = %47
  unreachable

49:                                               ; preds = %46
  %50 = landingpad { ptr, i32 }
          cleanup
  br label %53

51:                                               ; preds = %47
  %52 = landingpad { ptr, i32 }
          cleanup
  call void @_ZNSt7__cxx1112basic_stringIcSt11char_traitsIcESaIcEED1Ev(ptr noundef nonnull align 8 dereferenceable(32) %16) #19
  br label %53

53:                                               ; preds = %51, %49
  %.pn38 = phi { ptr, i32 } [ %52, %51 ], [ %50, %49 ]
  call void @_ZNSaIcED1Ev(ptr noundef nonnull align 1 dereferenceable(1) %17) #19
  br label %79

54:                                               ; preds = %._crit_edge, %41
  %55 = phi i32 [ %.pre, %._crit_edge ], [ 1, %41 ]
  %56 = getelementptr inbounds i8, ptr %1, i64 24
  %57 = load ptr, ptr %56, align 8
  %58 = add i32 %40, -1
  %59 = add i32 %58, %55
  %60 = invoke ptr @cvMakeSeqHeaderForArray(i32 noundef 21, i32 noundef 96, i32 noundef 12, ptr noundef %57, i32 noundef %59, ptr noundef nonnull %14, ptr noundef nonnull %15)
          to label %61 unwind label %33

61:                                               ; preds = %54
  %62 = getelementptr inbounds i8, ptr %60, i64 40
  %63 = load i32, ptr %62, align 8
  invoke void @cvClearSeq(ptr noundef nonnull %60)
          to label %64 unwind label %33

64:                                               ; preds = %31, %61
  %.026 = phi i32 [ %63, %61 ], [ 2147483647, %31 ]
  %.0 = phi ptr [ %60, %61 ], [ %32, %31 ]
  %65 = getelementptr inbounds i8, ptr %18, i64 16
  store i32 0, ptr %65, align 8
  %66 = getelementptr inbounds i8, ptr %18, i64 20
  store i32 0, ptr %66, align 4
  store i32 16842752, ptr %18, align 8
  %67 = getelementptr inbounds i8, ptr %18, i64 8
  store ptr %10, ptr %67, align 8
  %68 = getelementptr inbounds i8, ptr %19, i64 8
  %69 = getelementptr inbounds i8, ptr %19, i64 16
  store i64 0, ptr %69, align 8
  store i32 33619968, ptr %19, align 8
  store ptr %11, ptr %68, align 8
  invoke fastcc void @_ZN2cvL12HoughCirclesERKNS_11_InputArrayERKNS_12_OutputArrayEiddddiiid(ptr noundef nonnull align 8 dereferenceable(24) %18, ptr noundef nonnull align 8 dereferenceable(24) %19, i32 noundef %2, double noundef %3, double noundef %4, double noundef %5, double noundef %6, i32 noundef %7, i32 noundef %8, i32 noundef %.026)
          to label %70 unwind label %77

70:                                               ; preds = %64
  %71 = getelementptr inbounds i8, ptr %11, i64 16
  %72 = load ptr, ptr %71, align 8
  %73 = invoke noundef i64 @_ZNK2cv3Mat5totalEv(ptr noundef nonnull align 8 dereferenceable(96) %11)
          to label %74 unwind label %33

74:                                               ; preds = %70
  %75 = trunc i64 %73 to i32
  invoke void @cvSeqPushMulti(ptr noundef %.0, ptr noundef %72, i32 noundef %75, i32 noundef 0)
          to label %76 unwind label %33

76:                                               ; preds = %74
  call void @_ZN2cv3MatD1Ev(ptr noundef nonnull align 8 dereferenceable(96) %11) #19
  call void @_ZN2cv3MatD1Ev(ptr noundef nonnull align 8 dereferenceable(96) %10) #19
  ret ptr %.0

77:                                               ; preds = %64
  %78 = landingpad { ptr, i32 }
          cleanup
  br label %79

79:                                               ; preds = %77, %53, %33, %27
  %.pn42 = phi { ptr, i32 } [ %34, %33 ], [ %.pn38, %53 ], [ %.pn, %27 ], [ %78, %77 ]
  call void @_ZN2cv3MatD1Ev(ptr noundef nonnull align 8 dereferenceable(96) %11) #19
  call void @_ZN2cv3MatD1Ev(ptr noundef nonnull align 8 dereferenceable(96) %10) #19
  resume { ptr, i32 } %.pn42
}